; Function Attrs: nounwind uwtable
define internal ptr @hook_realloc(ptr noundef %0, ptr noundef %1, i64 noundef %2) #0 {
  %4 = getelementptr inbounds nuw i8, ptr %0, i64 88
  store ptr %0, ptr %4, align 8, !tbaa !31
  %5 = getelementptr inbounds nuw i8, ptr %0, i64 64
  store ptr %1, ptr %5, align 8, !tbaa !34
  %6 = getelementptr inbounds nuw i8, ptr %0, i64 72
  store i64 %2, ptr %6, align 8, !tbaa !41
  %7 = getelementptr inbounds nuw i8, ptr %0, i64 24
  %8 = load ptr, ptr %7, align 8, !tbaa !42
  %9 = load ptr, ptr %0, align 8, !tbaa !38
  %10 = tail call ptr %8(ptr noundef %9, ptr noundef %1, i64 noundef %2) #4
  ret ptr %10
}